; Function Attrs: nounwind uwtable
define dso_local range(i32 -1, 1) i32 @_PyMonitoring_FirePyYieldEvent(ptr noundef captures(none) %0, ptr noundef %1, i32 noundef %2, ptr noundef %3) local_unnamed_addr #2 {
  %5 = alloca [4 x ptr], align 16
  call void @llvm.lifetime.start.p0(i64 32, ptr nonnull %5) #11
  call void @llvm.memset.p0.i64(ptr noundef nonnull align 16 dereferenceable(32) %5, i8 0, i64 16, i1 false)
  %6 = getelementptr inbounds nuw i8, ptr %5, i64 24
  store ptr %3, ptr %6, align 8, !tbaa !46
  %7 = tail call align 8 ptr @llvm.threadlocal.address.p0(ptr align 8 @_Py_tss_tstate)
  %8 = load ptr, ptr %7, align 8, !tbaa !76
  %9 = getelementptr inbounds nuw i8, ptr %8, i64 16
  %10 = load ptr, ptr %9, align 8, !tbaa !47
  %11 = load i8, ptr %0, align 1, !tbaa !188
  %12 = getelementptr inbounds nuw i8, ptr %5, i64 8
  store ptr %1, ptr %12, align 8, !tbaa !46
  %13 = icmp slt i32 %2, 0
  br i1 %13, label %14, label %16

14:                                               ; preds = %4
  %15 = load ptr, ptr @PyExc_ValueError, align 8, !tbaa !46
  tail call void @PyErr_SetString(ptr noundef %15, ptr noundef nonnull @.str.55) #11
  br label %capi_call_instrumentation.exit

16:                                               ; preds = %4
  %17 = zext nneg i32 %2 to i64
  %18 = tail call ptr @PyLong_FromLong(i64 noundef %17) #11
  %.not48.i = icmp eq ptr %18, null
  br i1 %.not48.i, label %capi_call_instrumentation.exit, label %19

19:                                               ; preds = %16
  %20 = getelementptr inbounds nuw i8, ptr %5, i64 16
  store ptr %18, ptr %20, align 16, !tbaa !46
  %.not4954.i = icmp eq i8 %11, 0
  br i1 %.not4954.i, label %capi_call_instrumentation.exit, label %.lr.ph.split.us.i

.lr.ph.split.us.i:                                ; preds = %19, %Py_DECREF.exit.us.i
  %.03855.us.i = phi i8 [ %36, %Py_DECREF.exit.us.i ], [ %11, %19 ]
  %21 = icmp ugt i8 %.03855.us.i, 15
  br i1 %21, label %27, label %22

22:                                               ; preds = %.lr.ph.split.us.i
  %23 = zext nneg i8 %.03855.us.i to i64
  %24 = getelementptr [16 x i8], ptr @MOST_SIGNIFICANT_BITS, i64 0, i64 %23
  %25 = load i8, ptr %24, align 1, !tbaa !33
  %26 = sext i8 %25 to i32
  br label %most_significant_bit.exit.us.i

27:                                               ; preds = %.lr.ph.split.us.i
  %28 = lshr i8 %.03855.us.i, 4
  %29 = zext nneg i8 %28 to i64
  %30 = getelementptr [16 x i8], ptr @MOST_SIGNIFICANT_BITS, i64 0, i64 %29
  %31 = load i8, ptr %30, align 1, !tbaa !33
  %32 = sext i8 %31 to i32
  %33 = add nsw i32 %32, 4
  br label %most_significant_bit.exit.us.i

most_significant_bit.exit.us.i:                   ; preds = %27, %22
  %.0.i.us.i = phi i32 [ %33, %27 ], [ %26, %22 ]
  %34 = shl nuw i32 1, %.0.i.us.i
  %35 = trunc i32 %34 to i8
  %36 = xor i8 %.03855.us.i, %35
  %37 = trunc i32 %.0.i.us.i to i8
  %38 = call fastcc i32 @call_one_instrument(ptr noundef %10, ptr noundef %8, ptr noundef nonnull %12, i64 noundef -9223372036854775805, i8 noundef signext %37, i32 noundef 3)
  %39 = icmp eq i32 %38, 0
  br i1 %39, label %Py_DECREF.exit.us.i, label %40

40:                                               ; preds = %most_significant_bit.exit.us.i
  %41 = icmp slt i32 %38, 0
  br i1 %41, label %capi_call_instrumentation.exit, label %42

42:                                               ; preds = %40
  %43 = load i8, ptr %0, align 1, !tbaa !188
  %44 = xor i8 %35, -1
  %45 = and i8 %43, %44
  store i8 %45, ptr %0, align 1, !tbaa !188
  br label %Py_DECREF.exit.us.i

Py_DECREF.exit.us.i:                              ; preds = %42, %most_significant_bit.exit.us.i
  %.not49.us.i = icmp eq i8 %.03855.us.i, %35
  br i1 %.not49.us.i, label %capi_call_instrumentation.exit, label %.lr.ph.split.us.i

capi_call_instrumentation.exit:                   ; preds = %40, %Py_DECREF.exit.us.i, %14, %16, %19
  %.0.i = phi i32 [ -1, %14 ], [ -1, %16 ], [ 0, %19 ], [ -1, %40 ], [ 0, %Py_DECREF.exit.us.i ]
  call void @llvm.lifetime.end.p0(i64 32, ptr nonnull %5) #11
  ret i32 %.0.i
}